; Function Attrs: mustprogress uwtable
define hidden void @_ZN2bv6solver18internalize_int2bvEP3app(ptr noundef nonnull align 8 dereferenceable(640) %0, ptr noundef %1) local_unnamed_addr #3 align 2 {
  %3 = tail call noundef ptr @_ZNK3euf13th_euf_solver10expr2enodeEP4expr(ptr noundef nonnull align 8 dereferenceable(108) %0, ptr noundef %1)
  %4 = getelementptr inbounds nuw i8, ptr %0, i64 12
  %5 = load i32, ptr %4, align 4, !tbaa !65
  %6 = getelementptr inbounds nuw i8, ptr %3, i64 88
  %7 = load i32, ptr %6, align 8
  %8 = icmp ugt i32 %7, -257
  br i1 %8, label %_ZNK3euf5enode10get_th_varEi.exit, label %.preheader.i.i

.preheader.i.i:                                   ; preds = %2, %15
  %.0.i.i = phi ptr [ %17, %15 ], [ %6, %2 ]
  %9 = load i32, ptr %.0.i.i, align 8
  %10 = shl i32 %9, 24
  %11 = ashr exact i32 %10, 24
  %12 = icmp eq i32 %5, %11
  br i1 %12, label %13, label %15

13:                                               ; preds = %.preheader.i.i
  %14 = ashr i32 %9, 8
  br label %_ZNK3euf5enode10get_th_varEi.exit

15:                                               ; preds = %.preheader.i.i
  %16 = getelementptr inbounds nuw i8, ptr %.0.i.i, i64 8
  %17 = load ptr, ptr %16, align 8, !tbaa !76
  %.not.i.i = icmp eq ptr %17, null
  br i1 %.not.i.i, label %_ZNK3euf5enode10get_th_varEi.exit, label %.preheader.i.i, !llvm.loop !79

_ZNK3euf5enode10get_th_varEi.exit:                ; preds = %15, %2, %13
  %.06.i.i = phi i32 [ -1, %2 ], [ %14, %13 ], [ -1, %15 ]
  tail call void @_ZN2bv6solver7mk_bitsEi(ptr noundef nonnull align 8 dereferenceable(640) %0, i32 noundef %.06.i.i)
  %18 = getelementptr inbounds nuw i8, ptr %3, i64 176
  %19 = load ptr, ptr %18, align 8, !tbaa !113
  %20 = load i32, ptr %4, align 4, !tbaa !65
  %21 = getelementptr inbounds nuw i8, ptr %19, i64 88
  %22 = load i32, ptr %21, align 8
  %23 = icmp ugt i32 %22, -257
  br i1 %23, label %_ZNK3euf5enode10get_th_varEi.exit.thread.i, label %.preheader.i.i.i.preheader

.preheader.i.i.i.preheader:                       ; preds = %_ZNK3euf5enode10get_th_varEi.exit
  %24 = shl i32 %22, 24
  %25 = ashr exact i32 %24, 24
  %26 = icmp eq i32 %20, %25
  br i1 %26, label %_ZN2bv6solver7get_varEPN3euf5enodeE.exit, label %.lr.ph

.preheader.i.i.ithread-pre-split:                 ; preds = %.lr.ph
  %.pr = load i32, ptr %31, align 8
  %27 = shl i32 %.pr, 24
  %28 = ashr exact i32 %27, 24
  %29 = icmp eq i32 %20, %28
  br i1 %29, label %.preheader.i.i.i._ZNK3euf5enode10get_th_varEi.exit.i_crit_edge, label %.lr.ph

.lr.ph:                                           ; preds = %.preheader.i.i.i.preheader, %.preheader.i.i.ithread-pre-split
  %.0.i.i.i17 = phi ptr [ %31, %.preheader.i.i.ithread-pre-split ], [ %21, %.preheader.i.i.i.preheader ]
  %30 = getelementptr inbounds nuw i8, ptr %.0.i.i.i17, i64 8
  %31 = load ptr, ptr %30, align 8, !tbaa !76
  %.not.i.i.i = icmp eq ptr %31, null
  br i1 %.not.i.i.i, label %_ZNK3euf5enode10get_th_varEi.exit.thread.i, label %.preheader.i.i.ithread-pre-split, !llvm.loop !79

.preheader.i.i.i._ZNK3euf5enode10get_th_varEi.exit.i_crit_edge: ; preds = %.preheader.i.i.ithread-pre-split
  %32 = icmp ugt i32 %.pr, -257
  br i1 %32, label %_ZNK3euf5enode10get_th_varEi.exit.thread.i, label %_ZN2bv6solver7get_varEPN3euf5enodeE.exit

_ZNK3euf5enode10get_th_varEi.exit.thread.i:       ; preds = %.lr.ph, %.preheader.i.i.i._ZNK3euf5enode10get_th_varEi.exit.i_crit_edge, %_ZNK3euf5enode10get_th_varEi.exit
  %33 = load ptr, ptr %0, align 8, !tbaa !42
  %34 = getelementptr inbounds nuw i8, ptr %33, i64 528
  %35 = load ptr, ptr %34, align 8
  %36 = tail call noundef i32 %35(ptr noundef nonnull align 8 dereferenceable(640) %0, ptr noundef nonnull %19)
  %37 = getelementptr inbounds nuw i8, ptr %0, i64 128
  %38 = load ptr, ptr %19, align 8, !tbaa !80
  %39 = tail call noundef ptr @_ZNK4expr8get_sortEv(ptr noundef nonnull align 4 dereferenceable(16) %38)
  %40 = tail call noundef zeroext i1 @_ZNK14bv_recognizers10is_bv_sortEPK4sort(ptr noundef nonnull align 4 dereferenceable(4) %37, ptr noundef %39)
  br i1 %40, label %41, label %_ZN2bv6solver7get_varEPN3euf5enodeE.exit

41:                                               ; preds = %_ZNK3euf5enode10get_th_varEi.exit.thread.i
  tail call void @_ZN2bv6solver7mk_bitsEi(ptr noundef nonnull align 8 dereferenceable(640) %0, i32 noundef %36)
  br label %_ZN2bv6solver7get_varEPN3euf5enodeE.exit

_ZN2bv6solver7get_varEPN3euf5enodeE.exit:         ; preds = %.preheader.i.i.i.preheader, %.preheader.i.i.i._ZNK3euf5enode10get_th_varEi.exit.i_crit_edge, %_ZNK3euf5enode10get_th_varEi.exit.thread.i, %41
  tail call void @_ZN2bv6solver19assert_int2bv_axiomEP3app(ptr noundef nonnull align 8 dereferenceable(640) %0, ptr noundef %1)
  ret void
}